target datalayout = "e-m:e-p270:32:32-p271:32:32-p272:64:64-i64:64-i128:128-f80:128-n8:16:32:64-S128"
target triple = "x86_64-pc-linux-gnu"

%struct.wtap_block = type { ptr, ptr, ptr, i32 }
%struct._GArray = type { ptr, i32 }
%struct.wtapng_if_descr_mandatory_s = type { i32, i64, i32, i32, i8, ptr }

; Function Attrs: null_pointer_is_valid sspstrong uwtable
define internal void @idb_free_mand(ptr noundef %0) #0 {
  %2 = alloca ptr, align 8
  %3 = alloca i32, align 4
  %4 = alloca ptr, align 8
  %5 = alloca ptr, align 8
  store ptr %0, ptr %2, align 8
  call void @llvm.lifetime.start.p0(i64 4, ptr %3) #15
  call void @llvm.lifetime.start.p0(i64 8, ptr %4) #15
  call void @llvm.lifetime.start.p0(i64 8, ptr %5) #15
  %6 = load ptr, ptr %2, align 8
  %7 = getelementptr inbounds nuw %struct.wtap_block, ptr %6, i32 0, i32 1
  %8 = load ptr, ptr %7, align 8
  store ptr %8, ptr %5, align 8
  store i32 0, ptr %3, align 4
  br label %9

9:                                                ; preds = %27, %1
  %10 = load i32, ptr %3, align 4
  %11 = load ptr, ptr %5, align 8
  %12 = getelementptr inbounds nuw %struct.wtapng_if_descr_mandatory_s, ptr %11, i32 0, i32 4
  %13 = load i8, ptr %12, align 8
  %14 = zext i8 %13 to i32
  %15 = icmp ult i32 %10, %14
  br i1 %15, label %16, label %30

16:                                               ; preds = %9
  %17 = load ptr, ptr %5, align 8
  %18 = getelementptr inbounds nuw %struct.wtapng_if_descr_mandatory_s, ptr %17, i32 0, i32 5
  %19 = load ptr, ptr %18, align 8
  %20 = getelementptr inbounds nuw %struct._GArray, ptr %19, i32 0, i32 0
  %21 = load ptr, ptr %20, align 8
  %22 = load i32, ptr %3, align 4
  %23 = zext i32 %22 to i64
  %24 = getelementptr ptr, ptr %21, i64 %23
  %25 = load ptr, ptr %24, align 8
  store ptr %25, ptr %4, align 8
  %26 = load ptr, ptr %4, align 8
  call void @wtap_block_unref(ptr noundef %26)
  br label %27

27:                                               ; preds = %16
  %28 = load i32, ptr %3, align 4
  %29 = add i32 %28, 1
  store i32 %29, ptr %3, align 4
  br label %9, !llvm.loop !19

30:                                               ; preds = %9
  %31 = load ptr, ptr %5, align 8
  %32 = getelementptr inbounds nuw %struct.wtapng_if_descr_mandatory_s, ptr %31, i32 0, i32 5
  %33 = load ptr, ptr %32, align 8
  %34 = icmp ne ptr %33, null
  br i1 %34, label %35, label %40

35:                                               ; preds = %30
  %36 = load ptr, ptr %5, align 8
  %37 = getelementptr inbounds nuw %struct.wtapng_if_descr_mandatory_s, ptr %36, i32 0, i32 5
  %38 = load ptr, ptr %37, align 8
  %39 = call ptr @g_array_free(ptr noundef %38, i32 noundef 1)
  br label %40

40:                                               ; preds = %35, %30
  call void @llvm.lifetime.end.p0(i64 8, ptr %5) #15
  call void @llvm.lifetime.end.p0(i64 8, ptr %4) #15
  call void @llvm.lifetime.end.p0(i64 4, ptr %3) #15
  ret void
}