; Function Attrs: null_pointer_is_valid sspstrong uwtable
define internal void @idb_free_mand(ptr noundef readonly captures(none) %0) #0 {
  %2 = getelementptr inbounds nuw i8, ptr %0, i64 8
  %3 = load ptr, ptr %2, align 8
  %4 = getelementptr inbounds nuw i8, ptr %3, i64 24
  %5 = load i8, ptr %4, align 8
  %.not10 = icmp eq i8 %5, 0
  br i1 %.not10, label %._crit_edge, label %.lr.ph

.lr.ph:                                           ; preds = %1
  %6 = getelementptr inbounds nuw i8, ptr %3, i64 32
  br label %7

7:                                                ; preds = %.lr.ph, %7
  %indvars.iv = phi i64 [ 0, %.lr.ph ], [ %indvars.iv.next, %7 ]
  %8 = load ptr, ptr %6, align 8
  %9 = load ptr, ptr %8, align 8
  %10 = getelementptr ptr, ptr %9, i64 %indvars.iv
  %11 = load ptr, ptr %10, align 8
  tail call void @wtap_block_unref(ptr noundef %11)
  %indvars.iv.next = add nuw nsw i64 %indvars.iv, 1
  %12 = load i8, ptr %4, align 8
  %13 = zext i8 %12 to i64
  %14 = icmp samesign ult i64 %indvars.iv.next, %13
  br i1 %14, label %7, label %._crit_edge, !llvm.loop !27

._crit_edge:                                      ; preds = %7, %1
  %15 = getelementptr inbounds nuw i8, ptr %3, i64 32
  %16 = load ptr, ptr %15, align 8
  %.not = icmp eq ptr %16, null
  br i1 %.not, label %19, label %17

17:                                               ; preds = %._crit_edge
  %18 = tail call ptr @g_array_free(ptr noundef nonnull %16, i32 noundef 1)
  br label %19

19:                                               ; preds = %17, %._crit_edge
  ret void
}